target datalayout = "e-m:e-p270:32:32-p271:32:32-p272:64:64-i64:64-i128:128-f80:128-n8:16:32:64-S128"
target triple = "x86_64-pc-linux-gnu"

%struct.git_hash_algo = type { ptr, i32, i64, i64, i64, ptr, ptr, ptr, ptr, ptr, ptr, ptr, ptr, ptr }
%struct.object_id = type { [32 x i8], i32 }
%struct.repository = type { ptr, ptr, ptr, ptr, ptr, %struct.strmap, %struct.strmap, %struct.repo_path_cache, ptr, ptr, ptr, ptr, %struct.repo_settings, ptr, ptr, ptr, ptr, ptr, ptr, i32, i32, i32, ptr, ptr, i32, i32, i8 }
%struct.strmap = type { %struct.hashmap, ptr, i8 }
%struct.hashmap = type { ptr, ptr, ptr, i32, i32, i32, i32, i8 }
%struct.repo_path_cache = type { ptr, ptr, ptr, ptr, ptr, ptr, ptr }
%struct.repo_settings = type { i32, i32, i32, i32, i32, i32, i32, i32, i32, i32, i32, i32, ptr, i32, i32, i32, i32, i32, i32, i32, i64, i64, i64 }

@the_repository = external global ptr, align 8
@.str.126 = private unnamed_addr constant [23 x i8] c"invalid length read %d\00", align 1
@.str.127 = private unnamed_addr constant [13 x i8] c"invalid hash\00", align 1

; Function Attrs: nounwind uwtable
define internal void @parse_gitmodules_oids(i32 noundef %0, ptr noundef %1) #0 {
  %3 = alloca i32, align 4
  %4 = alloca ptr, align 8
  %5 = alloca i32, align 4
  %6 = alloca [65 x i8], align 16
  %7 = alloca i32, align 4
  %8 = alloca %struct.object_id, align 4
  %9 = alloca ptr, align 8
  %10 = alloca i32, align 4
  store i32 %0, ptr %3, align 4, !tbaa !19
  store ptr %1, ptr %4, align 8, !tbaa !117
  call void @llvm.lifetime.start.p0(i64 4, ptr %5) #11
  %11 = load ptr, ptr @the_repository, align 8, !tbaa !36
  %12 = getelementptr inbounds nuw %struct.repository, ptr %11, i32 0, i32 17
  %13 = load ptr, ptr %12, align 8, !tbaa !68
  %14 = getelementptr inbounds nuw %struct.git_hash_algo, ptr %13, i32 0, i32 3
  %15 = load i64, ptr %14, align 8, !tbaa !85
  %16 = add i64 %15, 1
  %17 = trunc i64 %16 to i32
  store i32 %17, ptr %5, align 4, !tbaa !19
  br label %18

18:                                               ; preds = %50, %2
  call void @llvm.lifetime.start.p0(i64 65, ptr %6) #11
  call void @llvm.lifetime.start.p0(i64 4, ptr %7) #11
  %19 = load i32, ptr %3, align 4, !tbaa !19
  %20 = getelementptr inbounds [65 x i8], ptr %6, i64 0, i64 0
  %21 = load i32, ptr %5, align 4, !tbaa !19
  %22 = sext i32 %21 to i64
  %23 = call i64 @read_in_full(i32 noundef %19, ptr noundef %20, i64 noundef %22)
  %24 = trunc i64 %23 to i32
  store i32 %24, ptr %7, align 4, !tbaa !19
  call void @llvm.lifetime.start.p0(i64 36, ptr %8) #11
  call void @llvm.lifetime.start.p0(i64 8, ptr %9) #11
  %25 = load i32, ptr %7, align 4, !tbaa !19
  %26 = icmp ne i32 %25, 0
  br i1 %26, label %28, label %27

27:                                               ; preds = %18
  store i32 1, ptr %10, align 4
  br label %47

28:                                               ; preds = %18
  %29 = load i32, ptr %7, align 4, !tbaa !19
  %30 = load i32, ptr %5, align 4, !tbaa !19
  %31 = icmp ne i32 %29, %30
  br i1 %31, label %32, label %34

32:                                               ; preds = %28
  %33 = load i32, ptr %7, align 4, !tbaa !19
  call void (ptr, ...) @die(ptr noundef @.str.126, i32 noundef %33) #13
  unreachable

34:                                               ; preds = %28
  %35 = getelementptr inbounds [65 x i8], ptr %6, i64 0, i64 0
  %36 = call i32 @parse_oid_hex(ptr noundef %35, ptr noundef %8, ptr noundef %9)
  %37 = icmp ne i32 %36, 0
  br i1 %37, label %43, label %38

38:                                               ; preds = %34
  %39 = load ptr, ptr %9, align 8, !tbaa !4
  %40 = load i8, ptr %39, align 1, !tbaa !16
  %41 = sext i8 %40 to i32
  %42 = icmp ne i32 %41, 10
  br i1 %42, label %43, label %44

43:                                               ; preds = %38, %34
  call void (ptr, ...) @die(ptr noundef @.str.127) #13
  unreachable

44:                                               ; preds = %38
  %45 = load ptr, ptr %4, align 8, !tbaa !117
  %46 = call i32 @oidset_insert(ptr noundef %45, ptr noundef %8)
  store i32 0, ptr %10, align 4
  br label %47

47:                                               ; preds = %44, %27
  call void @llvm.lifetime.end.p0(i64 8, ptr %9) #11
  call void @llvm.lifetime.end.p0(i64 36, ptr %8) #11
  call void @llvm.lifetime.end.p0(i64 4, ptr %7) #11
  call void @llvm.lifetime.end.p0(i64 65, ptr %6) #11
  %48 = load i32, ptr %10, align 4
  switch i32 %48, label %52 [
    i32 0, label %49
  ]

49:                                               ; preds = %47
  br label %50

50:                                               ; preds = %49
  br i1 true, label %18, label %51

51:                                               ; preds = %50
  store i32 0, ptr %10, align 4
  br label %52

52:                                               ; preds = %51, %47
  call void @llvm.lifetime.end.p0(i64 4, ptr %5) #11
  %53 = load i32, ptr %10, align 4
  switch i32 %53, label %55 [
    i32 0, label %54
    i32 1, label %54
  ]

54:                                               ; preds = %52, %52
  ret void

55:                                               ; preds = %52
  unreachable
}