; Function Attrs: nounwind uwtable
define internal fastcc void @parse_gitmodules_oids(i32 noundef %0) unnamed_addr #0 {
  %2 = alloca [65 x i8], align 16
  %3 = alloca %struct.object_id, align 4
  %4 = alloca ptr, align 8
  %5 = load ptr, ptr @the_repository, align 8, !tbaa !17
  %6 = getelementptr inbounds nuw i8, ptr %5, i64 400
  %7 = load ptr, ptr %6, align 8, !tbaa !94
  %8 = getelementptr inbounds nuw i8, ptr %7, i64 24
  %9 = load i64, ptr %8, align 8, !tbaa !111
  %10 = trunc i64 %9 to i32
  %11 = add i32 %10, 1
  %12 = sext i32 %11 to i64
  call void @llvm.lifetime.start.p0(i64 65, ptr nonnull %2) #20
  %13 = call i64 @read_in_full(i32 noundef %0, ptr noundef nonnull %2, i64 noundef %12) #20
  %14 = trunc i64 %13 to i32
  call void @llvm.lifetime.start.p0(i64 36, ptr nonnull %3) #20
  call void @llvm.lifetime.start.p0(i64 8, ptr nonnull %4) #20
  %.not.not3 = icmp eq i32 %14, 0
  br i1 %.not.not3, label %._crit_edge, label %.lr.ph

.lr.ph:                                           ; preds = %1, %23
  %15 = phi i32 [ %26, %23 ], [ %14, %1 ]
  %.not8 = icmp eq i32 %11, %15
  br i1 %.not8, label %17, label %16

16:                                               ; preds = %.lr.ph
  call void (ptr, ...) @die(ptr noundef nonnull @.str.126, i32 noundef %15) #21
  unreachable

17:                                               ; preds = %.lr.ph
  %18 = call i32 @parse_oid_hex(ptr noundef nonnull %2, ptr noundef nonnull %3, ptr noundef nonnull %4) #20
  %.not9 = icmp eq i32 %18, 0
  br i1 %.not9, label %19, label %22

19:                                               ; preds = %17
  %20 = load ptr, ptr %4, align 8, !tbaa !11
  %21 = load i8, ptr %20, align 1, !tbaa !12
  %.not10 = icmp eq i8 %21, 10
  br i1 %.not10, label %23, label %22

22:                                               ; preds = %19, %17
  call void (ptr, ...) @die(ptr noundef nonnull @.str.127) #21
  unreachable

23:                                               ; preds = %19
  %24 = call i32 @oidset_insert(ptr noundef nonnull getelementptr inbounds nuw (i8, ptr @fsck_options, i64 72), ptr noundef nonnull %3) #20
  call void @llvm.lifetime.end.p0(i64 8, ptr nonnull %4) #20
  call void @llvm.lifetime.end.p0(i64 36, ptr nonnull %3) #20
  call void @llvm.lifetime.end.p0(i64 65, ptr nonnull %2) #20
  call void @llvm.lifetime.start.p0(i64 65, ptr nonnull %2) #20
  %25 = call i64 @read_in_full(i32 noundef %0, ptr noundef nonnull %2, i64 noundef %12) #20
  %26 = trunc i64 %25 to i32
  call void @llvm.lifetime.start.p0(i64 36, ptr nonnull %3) #20
  call void @llvm.lifetime.start.p0(i64 8, ptr nonnull %4) #20
  %.not.not = icmp eq i32 %26, 0
  br i1 %.not.not, label %._crit_edge, label %.lr.ph

._crit_edge:                                      ; preds = %23, %1
  call void @llvm.lifetime.end.p0(i64 8, ptr nonnull %4) #20
  call void @llvm.lifetime.end.p0(i64 36, ptr nonnull %3) #20
  call void @llvm.lifetime.end.p0(i64 65, ptr nonnull %2) #20
  ret void
}